; Function Attrs: mustprogress nofree norecurse nosync nounwind willreturn memory(read, inaccessiblemem: none) uwtable
define ptr @pmix_bfrops_base_data_type_string(ptr noundef readonly captures(none) %0, i16 noundef zeroext %1) local_unnamed_addr #10 {
  %3 = zext i16 %1 to i32
  %4 = getelementptr inbounds nuw i8, ptr %0, i64 128
  %5 = load i32, ptr %4, align 8, !tbaa !132
  %.not.i = icmp sgt i32 %5, %3
  br i1 %.not.i, label %pmix_pointer_array_get_item.exit, label %pmix_pointer_array_get_item.exit.thread, !prof !135

pmix_pointer_array_get_item.exit:                 ; preds = %2
  %6 = getelementptr inbounds nuw i8, ptr %0, i64 152
  %7 = load ptr, ptr %6, align 8, !tbaa !136
  %8 = zext i16 %1 to i64
  %9 = getelementptr inbounds nuw ptr, ptr %7, i64 %8
  %10 = load ptr, ptr %9, align 8, !tbaa !26
  %11 = icmp eq ptr %10, null
  br i1 %11, label %pmix_pointer_array_get_item.exit.thread, label %12

12:                                               ; preds = %pmix_pointer_array_get_item.exit
  %13 = getelementptr inbounds nuw i8, ptr %10, i64 128
  %14 = load ptr, ptr %13, align 8, !tbaa !141
  br label %pmix_pointer_array_get_item.exit.thread

pmix_pointer_array_get_item.exit.thread:          ; preds = %2, %pmix_pointer_array_get_item.exit, %12
  %.0 = phi ptr [ %14, %12 ], [ null, %pmix_pointer_array_get_item.exit ], [ null, %2 ]
  ret ptr %.0
}